; ModuleID = '30/1311.cpp'
source_filename = "30/1311.cpp"
target datalayout = "e-m:e-p270:32:32-p271:32:32-p272:64:64-i64:64-f80:128-n8:16:32:64-S128"
target triple = "x86_64-pc-linux-gnu"

%"class.std::ios_base::Init" = type { i8 }
%"class.std::basic_istream" = type { i32 (...)**, i64, %"class.std::basic_ios" }
%"class.std::basic_ios" = type { %"class.std::ios_base", %"class.std::basic_ostream"*, i8, i8, %"class.std::basic_streambuf"*, %"class.std::ctype"*, %"class.std::num_put"*, %"class.std::num_get"* }
%"class.std::ios_base" = type { i32 (...)**, i64, i64, i32, i32, i32, %"struct.std::ios_base::_Callback_list"*, %"struct.std::ios_base::_Words", [8 x %"struct.std::ios_base::_Words"], i32, %"struct.std::ios_base::_Words"*, %"class.std::locale" }
%"struct.std::ios_base::_Callback_list" = type { %"struct.std::ios_base::_Callback_list"*, void (i32, %"class.std::ios_base"*, i32)*, i32, i32 }
%"struct.std::ios_base::_Words" = type { i8*, i64 }
%"class.std::locale" = type { %"class.std::locale::_Impl"* }
%"class.std::locale::_Impl" = type { i32, %"class.std::locale::facet"**, i64, %"class.std::locale::facet"**, i8** }
%"class.std::locale::facet" = type <{ i32 (...)**, i32, [4 x i8] }>
%"class.std::basic_ostream" = type { i32 (...)**, %"class.std::basic_ios" }
%"class.std::basic_streambuf" = type { i32 (...)**, i8*, i8*, i8*, i8*, i8*, i8*, %"class.std::locale" }
%"class.std::ctype" = type <{ %"class.std::locale::facet.base", [4 x i8], %struct.__locale_struct*, i8, [7 x i8], i32*, i32*, i16*, i8, [256 x i8], [256 x i8], i8, [6 x i8] }>
%"class.std::locale::facet.base" = type <{ i32 (...)**, i32 }>
%struct.__locale_struct = type { [13 x %struct.__locale_data*], i16*, i32*, i32*, [13 x i8*] }
%struct.__locale_data = type opaque
%"class.std::num_put" = type { %"class.std::locale::facet.base", [4 x i8] }
%"class.std::num_get" = type { %"class.std::locale::facet.base", [4 x i8] }

@_ZStL8__ioinit = internal global %"class.std::ios_base::Init" zeroinitializer, align 1
@__dso_handle = external hidden global i8
@_ZSt3cin = external dso_local global %"class.std::basic_istream", align 8
@_ZSt4cout = external dso_local global %"class.std::basic_ostream", align 8
@llvm.global_ctors = appending global [1 x { i32, void ()*, i8* }] [{ i32, void ()*, i8* } { i32 65535, void ()* @_GLOBAL__sub_I_1311.cpp, i8* null }]

; Function Attrs: noinline uwtable
define internal void @__cxx_global_var_init() #0 section ".text.startup" {
  call void @_ZNSt8ios_base4InitC1Ev(%"class.std::ios_base::Init"* @_ZStL8__ioinit)
  %1 = call i32 @__cxa_atexit(void (i8*)* bitcast (void (%"class.std::ios_base::Init"*)* @_ZNSt8ios_base4InitD1Ev to void (i8*)*), i8* getelementptr inbounds (%"class.std::ios_base::Init", %"class.std::ios_base::Init"* @_ZStL8__ioinit, i32 0, i32 0), i8* @__dso_handle) #3
  ret void
}

declare dso_local void @_ZNSt8ios_base4InitC1Ev(%"class.std::ios_base::Init"*) unnamed_addr #1

; Function Attrs: nounwind
declare dso_local void @_ZNSt8ios_base4InitD1Ev(%"class.std::ios_base::Init"*) unnamed_addr #2

; Function Attrs: nounwind
declare dso_local i32 @__cxa_atexit(void (i8*)*, i8*, i8*) #3

; Function Attrs: noinline norecurse uwtable
define dso_local i32 @main() #4 {
  %1 = alloca i32, align 4
  %2 = alloca i32, align 4
  %3 = alloca i32, align 4
  %4 = alloca i32, align 4
  %5 = alloca double, align 8
  %6 = alloca double, align 8
  store i32 0, i32* %1, align 4
  %7 = call dereferenceable(280) %"class.std::basic_istream"* @_ZNSirsERi(%"class.std::basic_istream"* @_ZSt3cin, i32* dereferenceable(4) %2)
  %8 = load i32, i32* %2, align 4
  %9 = load i32, i32* %2, align 4
  %10 = add nsw i32 %9, 1
  %11 = mul nsw i32 %8, %10
  %12 = load i32, i32* %2, align 4
  %13 = mul nsw i32 2, %12
  %14 = add nsw i32 %13, 1
  %15 = mul nsw i32 %11, %14
  %16 = sdiv i32 %15, 6
  store i32 %16, i32* %3, align 4
  store i32 1, i32* %4, align 4
  br label %17

17:                                               ; preds = %60, %0
  %18 = load i32, i32* %4, align 4
  %19 = load i32, i32* %2, align 4
  %20 = icmp sle i32 %18, %19
  br i1 %20, label %21, label %63

21:                                               ; preds = %17
  %22 = load i32, i32* %4, align 4
  %23 = srem i32 %22, 10
  %24 = sitofp i32 %23 to double
  store double %24, double* %5, align 8
  %25 = load i32, i32* %4, align 4
  %26 = srem i32 %25, 7
  %27 = sitofp i32 %26 to double
  store double %27, double* %6, align 8
  %28 = load double, double* %5, align 8
  %29 = fcmp oeq double %28, 7.000000e+00
  br i1 %29, label %30, label %36

30:                                               ; preds = %21
  %31 = load i32, i32* %3, align 4
  %32 = load i32, i32* %4, align 4
  %33 = load i32, i32* %4, align 4
  %34 = mul nsw i32 %32, %33
  %35 = sub nsw i32 %31, %34
  store i32 %35, i32* %3, align 4
  br label %59

36:                                               ; preds = %21
  %37 = load i32, i32* %4, align 4
  %38 = icmp sge i32 %37, 70
  br i1 %38, label %39, label %48

39:                                               ; preds = %36
  %40 = load i32, i32* %4, align 4
  %41 = icmp slt i32 %40, 80
  br i1 %41, label %42, label %48

42:                                               ; preds = %39
  %43 = load i32, i32* %3, align 4
  %44 = load i32, i32* %4, align 4
  %45 = load i32, i32* %4, align 4
  %46 = mul nsw i32 %44, %45
  %47 = sub nsw i32 %43, %46
  store i32 %47, i32* %3, align 4
  br label %58

48:                                               ; preds = %39, %36
  %49 = load double, double* %6, align 8
  %50 = fcmp oeq double %49, 0.000000e+00
  br i1 %50, label %51, label %57

51:                                               ; preds = %48
  %52 = load i32, i32* %3, align 4
  %53 = load i32, i32* %4, align 4
  %54 = load i32, i32* %4, align 4
  %55 = mul nsw i32 %53, %54
  %56 = sub nsw i32 %52, %55
  store i32 %56, i32* %3, align 4
  br label %57

57:                                               ; preds = %51, %48
  br label %58

58:                                               ; preds = %57, %42
  br label %59

59:                                               ; preds = %58, %30
  br label %60

60:                                               ; preds = %59
  %61 = load i32, i32* %4, align 4
  %62 = add nsw i32 %61, 1
  store i32 %62, i32* %4, align 4
  br label %17

63:                                               ; preds = %17
  %64 = load i32, i32* %3, align 4
  %65 = call dereferenceable(272) %"class.std::basic_ostream"* @_ZNSolsEi(%"class.std::basic_ostream"* @_ZSt4cout, i32 %64)
  ret i32 0
}

declare dso_local dereferenceable(280) %"class.std::basic_istream"* @_ZNSirsERi(%"class.std::basic_istream"*, i32* dereferenceable(4)) #1

declare dso_local dereferenceable(272) %"class.std::basic_ostream"* @_ZNSolsEi(%"class.std::basic_ostream"*, i32) #1

; Function Attrs: noinline uwtable
define internal void @_GLOBAL__sub_I_1311.cpp() #0 section ".text.startup" {
  call void @__cxx_global_var_init()
  ret void
}


!llvm.module.flags = !{!0}
!llvm.ident = !{!1}

!0 = !{i32 1, !"wchar_size", i32 4}
!1 = !{!"clang version 10.0.0-4ubuntu1 "}
